; Function Attrs: noinline norecurse nounwind uwtable
define internal void @_ZNK8LightGBM4Tree20AddPredictionToScoreEPKNS_7DatasetEiPd.omp_outlined(ptr noalias noundef readonly captures(none) %0, ptr noalias readnone captures(none) %1, ptr noundef nonnull readonly align 4 captures(none) dereferenceable(4) %2, ptr noundef nonnull readonly align 8 captures(none) dereferenceable(8) %3, ptr noundef readonly captures(none) %4) #15 {
  %6 = alloca i32, align 4
  %7 = alloca i32, align 4
  %8 = alloca i32, align 4
  %9 = alloca i32, align 4
  %10 = load i32, ptr %2, align 4, !tbaa !36
  %11 = add nsw i32 %10, -1
  %12 = icmp sgt i32 %10, 0
  br i1 %12, label %13, label %33

13:                                               ; preds = %5
  call void @llvm.lifetime.start.p0(i64 4, ptr nonnull %6) #16
  store i32 0, ptr %6, align 4, !tbaa !36
  call void @llvm.lifetime.start.p0(i64 4, ptr nonnull %7) #16
  store i32 %11, ptr %7, align 4, !tbaa !36
  call void @llvm.lifetime.start.p0(i64 4, ptr nonnull %8) #16
  store i32 1, ptr %8, align 4, !tbaa !36
  call void @llvm.lifetime.start.p0(i64 4, ptr nonnull %9) #16
  store i32 0, ptr %9, align 4, !tbaa !36
  %14 = load i32, ptr %0, align 4, !tbaa !36
  call void @__kmpc_for_static_init_4(ptr nonnull @1, i32 %14, i32 33, ptr nonnull %9, ptr nonnull %6, ptr nonnull %7, ptr nonnull %8, i32 1, i32 512)
  %.promoted = load i32, ptr %7, align 4, !tbaa !36
  %.promoted17 = load i32, ptr %6, align 4, !tbaa !36
  %15 = call i32 @llvm.smin.i32(i32 %.promoted, i32 %11)
  %.not18 = icmp sgt i32 %.promoted17, %15
  br i1 %.not18, label %32, label %.preheader.lr.ph

.preheader.lr.ph:                                 ; preds = %13
  %16 = getelementptr inbounds nuw i8, ptr %4, i64 336
  %17 = load ptr, ptr %16, align 8, !tbaa !18
  %18 = load ptr, ptr %3, align 8, !tbaa !38
  %19 = load i32, ptr %8, align 4, !tbaa !36
  %20 = sext i32 %.promoted17 to i64
  %21 = sext i32 %19 to i64
  br label %.preheader

.preheader:                                       ; preds = %.preheader.lr.ph, %29
  %indvars.iv = phi i64 [ %20, %.preheader.lr.ph ], [ %indvars.iv.next, %29 ]
  %22 = phi i32 [ %15, %.preheader.lr.ph ], [ %31, %29 ]
  %23 = sext i32 %22 to i64
  br label %24

24:                                               ; preds = %.preheader, %24
  %indvars.iv22 = phi i64 [ %indvars.iv, %.preheader ], [ %indvars.iv.next23, %24 ]
  %25 = load double, ptr %17, align 8, !tbaa !66
  %26 = getelementptr inbounds double, ptr %18, i64 %indvars.iv22
  %27 = load double, ptr %26, align 8, !tbaa !66
  %28 = fadd double %25, %27
  store double %28, ptr %26, align 8, !tbaa !66
  %indvars.iv.next23 = add nsw i64 %indvars.iv22, 1
  %.not15.not = icmp slt i64 %indvars.iv22, %23
  br i1 %.not15.not, label %24, label %29

29:                                               ; preds = %24
  %indvars.iv.next = add i64 %indvars.iv, %21
  %indvars = trunc i64 %indvars.iv.next to i32
  %30 = add nsw i32 %19, %22
  %31 = call i32 @llvm.smin.i32(i32 %30, i32 %11)
  %.not = icmp slt i32 %31, %indvars
  br i1 %.not, label %._crit_edge, label %.preheader

._crit_edge:                                      ; preds = %29
  store i32 %indvars, ptr %6, align 4, !tbaa !36
  br label %32

32:                                               ; preds = %._crit_edge, %13
  %.lcssa = phi i32 [ %31, %._crit_edge ], [ %15, %13 ]
  store i32 %.lcssa, ptr %7, align 4, !tbaa !36
  call void @__kmpc_for_static_fini(ptr nonnull @1, i32 %14)
  call void @llvm.lifetime.end.p0(i64 4, ptr nonnull %9) #16
  call void @llvm.lifetime.end.p0(i64 4, ptr nonnull %8) #16
  call void @llvm.lifetime.end.p0(i64 4, ptr nonnull %7) #16
  call void @llvm.lifetime.end.p0(i64 4, ptr nonnull %6) #16
  br label %33

33:                                               ; preds = %32, %5
  ret void
}